target datalayout = "e-m:e-p270:32:32-p271:32:32-p272:64:64-i64:64-i128:128-f80:128-n8:16:32:64-S128"
target triple = "x86_64-pc-linux-gnu"

@.str.12 = private unnamed_addr constant [7 x i8] c"NotSet\00", align 1

; Function Attrs: nounwind uwtable
define dso_local ptr @slurmdb_federation_flags_str(i32 noundef %0) #0 {
  %2 = alloca ptr, align 8
  %3 = alloca i32, align 4
  %4 = alloca ptr, align 8
  %5 = alloca i32, align 4
  store i32 %0, ptr %3, align 4
  call void @llvm.lifetime.start.p0(i64 8, ptr %4) #10
  store ptr null, ptr %4, align 8
  %6 = load i32, ptr %3, align 4
  %7 = and i32 %6, 268435456
  %8 = icmp ne i32 %7, 0
  br i1 %8, label %9, label %11

9:                                                ; preds = %1
  %10 = call ptr @xstrdup(ptr noundef @.str.12)
  store ptr %10, ptr %2, align 8
  store i32 1, ptr %5, align 4
  br label %13

11:                                               ; preds = %1
  %12 = load ptr, ptr %4, align 8
  store ptr %12, ptr %2, align 8
  store i32 1, ptr %5, align 4
  br label %13

13:                                               ; preds = %11, %9
  call void @llvm.lifetime.end.p0(i64 8, ptr %4) #10
  %14 = load ptr, ptr %2, align 8
  ret ptr %14
}