; Function Attrs: nounwind uwtable
define dso_local ptr @slurmdb_federation_flags_str(i32 noundef %0) local_unnamed_addr #0 {
  %2 = and i32 %0, 268435456
  %.not = icmp eq i32 %2, 0
  br i1 %.not, label %5, label %3

3:                                                ; preds = %1
  %4 = tail call ptr @xstrdup(ptr noundef nonnull @.str.12) #19
  br label %5

5:                                                ; preds = %1, %3
  %.0 = phi ptr [ %4, %3 ], [ null, %1 ]
  ret ptr %.0
}